target datalayout = "e-m:e-p270:32:32-p271:32:32-p272:64:64-i64:64-i128:128-f80:128-n8:16:32:64-S128"
target triple = "x86_64-pc-linux-gnu"

%struct.mi_heap_s = type { ptr, ptr, i64, i32, i64, [2 x i64], %struct.mi_random_cxt_s, i64, i64, i64, ptr, i8, i8, [129 x ptr], [75 x %struct.mi_page_queue_s] }
%struct.mi_random_cxt_s = type { [16 x i32], [16 x i32], i32, i8 }
%struct.mi_page_queue_s = type { ptr, ptr, i64 }
%struct.mi_page_s = type { i8, i8, i16, i16, %union.mi_page_flags_s, i8, ptr, ptr, i16, i8, i8, i64, ptr, i64, i64, ptr, ptr }
%union.mi_page_flags_s = type { i8 }
%struct.mi_segment_s = type { %struct.mi_memid_s, i8, i8, i64, ptr, ptr, ptr, i8, i8, i64, i64, i64, i64, i64, i64, ptr, ptr, i64, i64, i32, [1 x %struct.mi_page_s] }
%struct.mi_memid_s = type { %union.anon, i8, i8, i8, i32 }
%union.anon = type { %struct.mi_memid_os_info }
%struct.mi_memid_os_info = type { ptr, i64 }
%struct.mi_segments_tld_s = type { %struct.mi_segment_queue_s, %struct.mi_segment_queue_s, %struct.mi_page_queue_s, i64, i64, i64, i64, i64, ptr, ptr }
%struct.mi_segment_queue_s = type { ptr, ptr }

; Function Attrs: inlinehint nounwind uwtable
define internal ptr @_mi_ptr_segment(ptr noundef %0) #2 {
  %2 = alloca ptr, align 8
  %3 = alloca ptr, align 8
  store ptr %0, ptr %2, align 8, !tbaa !90
  call void @llvm.lifetime.start.p0(i64 8, ptr %3) #7
  %4 = load ptr, ptr %2, align 8, !tbaa !90
  %5 = ptrtoint ptr %4 to i64
  %6 = sub i64 %5, 1
  %7 = and i64 %6, -4194304
  %8 = inttoptr i64 %7 to ptr
  store ptr %8, ptr %3, align 8, !tbaa !3
  %9 = load ptr, ptr %3, align 8, !tbaa !3
  %10 = ptrtoint ptr %9 to i64
  %11 = icmp sle i64 %10, 0
  br i1 %11, label %12, label %13

12:                                               ; preds = %1
  br label %15

13:                                               ; preds = %1
  %14 = load ptr, ptr %3, align 8, !tbaa !3
  br label %15

15:                                               ; preds = %13, %12
  %16 = phi ptr [ null, %12 ], [ %14, %13 ]
  call void @llvm.lifetime.end.p0(i64 8, ptr %3) #7
  ret ptr %16
}

; Function Attrs: nounwind uwtable
define internal void @mi_segment_force_abandon(ptr noundef %0, ptr noundef %1) #0 {
  %3 = alloca ptr, align 8
  %4 = alloca ptr, align 8
  %5 = alloca i64, align 8
  %6 = alloca i32, align 4
  %7 = alloca ptr, align 8
  store ptr %0, ptr %3, align 8, !tbaa !3
  store ptr %1, ptr %4, align 8, !tbaa !28
  %8 = load ptr, ptr %3, align 8, !tbaa !3
  %9 = getelementptr inbounds nuw %struct.mi_segment_s, ptr %8, i32 0, i32 8
  store i8 1, ptr %9, align 1, !tbaa !56
  call void @llvm.lifetime.start.p0(i64 8, ptr %5) #7
  store i64 0, ptr %5, align 8, !tbaa !14
  br label %10

10:                                               ; preds = %47, %2
  %11 = load i64, ptr %5, align 8, !tbaa !14
  %12 = load ptr, ptr %3, align 8, !tbaa !3
  %13 = getelementptr inbounds nuw %struct.mi_segment_s, ptr %12, i32 0, i32 12
  %14 = load i64, ptr %13, align 8, !tbaa !43
  %15 = icmp ult i64 %11, %14
  br i1 %15, label %17, label %16

16:                                               ; preds = %10
  store i32 2, ptr %6, align 4
  br label %50

17:                                               ; preds = %10
  call void @llvm.lifetime.start.p0(i64 8, ptr %7) #7
  %18 = load ptr, ptr %3, align 8, !tbaa !3
  %19 = getelementptr inbounds nuw %struct.mi_segment_s, ptr %18, i32 0, i32 20
  %20 = load i64, ptr %5, align 8, !tbaa !14
  %21 = getelementptr inbounds nuw [1 x %struct.mi_page_s], ptr %19, i64 0, i64 %20
  store ptr %21, ptr %7, align 8, !tbaa !8
  %22 = load ptr, ptr %7, align 8, !tbaa !8
  %23 = getelementptr inbounds nuw %struct.mi_page_s, ptr %22, i32 0, i32 1
  %24 = load i8, ptr %23, align 1
  %25 = and i8 %24, 1
  %26 = icmp ne i8 %25, 0
  br i1 %26, label %27, label %43

27:                                               ; preds = %17
  %28 = load ptr, ptr %3, align 8, !tbaa !3
  %29 = getelementptr inbounds nuw %struct.mi_segment_s, ptr %28, i32 0, i32 11
  %30 = load i64, ptr %29, align 8, !tbaa !41
  %31 = load ptr, ptr %3, align 8, !tbaa !3
  %32 = getelementptr inbounds nuw %struct.mi_segment_s, ptr %31, i32 0, i32 9
  %33 = load i64, ptr %32, align 8, !tbaa !42
  %34 = add i64 %33, 1
  %35 = icmp eq i64 %30, %34
  br i1 %35, label %36, label %40

36:                                               ; preds = %27
  %37 = load ptr, ptr %3, align 8, !tbaa !3
  %38 = getelementptr inbounds nuw %struct.mi_segment_s, ptr %37, i32 0, i32 8
  store i8 0, ptr %38, align 1, !tbaa !56
  %39 = load ptr, ptr %7, align 8, !tbaa !8
  call void @_mi_page_force_abandon(ptr noundef %39) #8
  store i32 1, ptr %6, align 4
  br label %44

40:                                               ; preds = %27
  %41 = load ptr, ptr %7, align 8, !tbaa !8
  call void @_mi_page_force_abandon(ptr noundef %41) #8
  br label %42

42:                                               ; preds = %40
  br label %43

43:                                               ; preds = %42, %17
  store i32 0, ptr %6, align 4
  br label %44

44:                                               ; preds = %43, %36
  call void @llvm.lifetime.end.p0(i64 8, ptr %7) #7
  %45 = load i32, ptr %6, align 4
  switch i32 %45, label %50 [
    i32 0, label %46
  ]

46:                                               ; preds = %44
  br label %47

47:                                               ; preds = %46
  %48 = load i64, ptr %5, align 8, !tbaa !14
  %49 = add i64 %48, 1
  store i64 %49, ptr %5, align 8, !tbaa !14
  br label %10, !llvm.loop !113

50:                                               ; preds = %44, %16
  call void @llvm.lifetime.end.p0(i64 8, ptr %5) #7
  %51 = load i32, ptr %6, align 4
  switch i32 %51, label %65 [
    i32 2, label %52
    i32 1, label %64
  ]

52:                                               ; preds = %50
  %53 = load ptr, ptr %3, align 8, !tbaa !3
  %54 = getelementptr inbounds nuw %struct.mi_segment_s, ptr %53, i32 0, i32 8
  store i8 0, ptr %54, align 1, !tbaa !56
  %55 = load ptr, ptr %3, align 8, !tbaa !3
  %56 = getelementptr inbounds nuw %struct.mi_segment_s, ptr %55, i32 0, i32 11
  %57 = load i64, ptr %56, align 8, !tbaa !41
  %58 = icmp eq i64 %57, 0
  br i1 %58, label %59, label %62

59:                                               ; preds = %52
  %60 = load ptr, ptr %3, align 8, !tbaa !3
  %61 = load ptr, ptr %4, align 8, !tbaa !28
  call void @mi_segment_free(ptr noundef %60, i1 noundef zeroext false, ptr noundef %61) #8
  br label %64

62:                                               ; preds = %52
  %63 = load ptr, ptr %4, align 8, !tbaa !28
  call void @mi_pages_try_purge(i1 noundef zeroext false, ptr noundef %63) #8
  br label %64

64:                                               ; preds = %50, %62, %59
  ret void

65:                                               ; preds = %50
  unreachable
}

; Function Attrs: inlinehint nounwind uwtable
define internal ptr @_mi_page_segment(ptr noundef %0) #2 {
  %2 = alloca ptr, align 8
  %3 = alloca ptr, align 8
  store ptr %0, ptr %2, align 8, !tbaa !8
  call void @llvm.lifetime.start.p0(i64 8, ptr %3) #7
  %4 = load ptr, ptr %2, align 8, !tbaa !8
  %5 = call ptr @_mi_ptr_segment(ptr noundef %4) #8
  store ptr %5, ptr %3, align 8, !tbaa !3
  %6 = load ptr, ptr %3, align 8, !tbaa !3
  call void @llvm.lifetime.end.p0(i64 8, ptr %3) #7
  ret ptr %6
}

; Function Attrs: inlinehint nounwind uwtable
define internal zeroext i1 @mi_page_is_huge(ptr noundef %0) #2 {
  %2 = alloca ptr, align 8
  store ptr %0, ptr %2, align 8, !tbaa !8
  %3 = load ptr, ptr %2, align 8, !tbaa !8
  %4 = getelementptr inbounds nuw %struct.mi_page_s, ptr %3, i32 0, i32 1
  %5 = load i8, ptr %4, align 1
  %6 = lshr i8 %5, 3
  %7 = and i8 %6, 1
  %8 = icmp ne i8 %7, 0
  ret i1 %8
}

; Function Attrs: nounwind uwtable
define internal void @mi_segments_try_abandon_to_target(ptr noundef %0, i64 noundef %1, ptr noundef %2) #0 {
  %4 = alloca ptr, align 8
  %5 = alloca i64, align 8
  %6 = alloca ptr, align 8
  %7 = alloca i64, align 8
  %8 = alloca i32, align 4
  %9 = alloca i32, align 4
  %10 = alloca ptr, align 8
  %11 = alloca ptr, align 8
  store ptr %0, ptr %4, align 8, !tbaa !62
  store i64 %1, ptr %5, align 8, !tbaa !14
  store ptr %2, ptr %6, align 8, !tbaa !28
  %12 = load i64, ptr %5, align 8, !tbaa !14
  %13 = icmp ule i64 %12, 1
  br i1 %13, label %14, label %15

14:                                               ; preds = %3
  br label %73

15:                                               ; preds = %3
  call void @llvm.lifetime.start.p0(i64 8, ptr %7) #7
  %16 = load i64, ptr %5, align 8, !tbaa !14
  %17 = icmp ugt i64 %16, 4
  br i1 %17, label %18, label %22

18:                                               ; preds = %15
  %19 = load i64, ptr %5, align 8, !tbaa !14
  %20 = mul i64 %19, 3
  %21 = udiv i64 %20, 4
  br label %24

22:                                               ; preds = %15
  %23 = load i64, ptr %5, align 8, !tbaa !14
  br label %24

24:                                               ; preds = %22, %18
  %25 = phi i64 [ %21, %18 ], [ %23, %22 ]
  store i64 %25, ptr %7, align 8, !tbaa !14
  call void @llvm.lifetime.start.p0(i64 4, ptr %8) #7
  store i32 0, ptr %8, align 4, !tbaa !83
  br label %26

26:                                               ; preds = %68, %24
  %27 = load i32, ptr %8, align 4, !tbaa !83
  %28 = icmp slt i32 %27, 64
  br i1 %28, label %29, label %35

29:                                               ; preds = %26
  %30 = load ptr, ptr %6, align 8, !tbaa !28
  %31 = getelementptr inbounds nuw %struct.mi_segments_tld_s, ptr %30, i32 0, i32 3
  %32 = load i64, ptr %31, align 8, !tbaa !84
  %33 = load i64, ptr %7, align 8, !tbaa !14
  %34 = icmp uge i64 %32, %33
  br label %35

35:                                               ; preds = %29, %26
  %36 = phi i1 [ false, %26 ], [ %34, %29 ]
  br i1 %36, label %38, label %37

37:                                               ; preds = %35
  store i32 2, ptr %9, align 4
  br label %71

38:                                               ; preds = %35
  call void @llvm.lifetime.start.p0(i64 8, ptr %10) #7
  %39 = load ptr, ptr %4, align 8, !tbaa !62
  %40 = getelementptr inbounds nuw %struct.mi_heap_s, ptr %39, i32 0, i32 14
  %41 = getelementptr inbounds nuw [75 x %struct.mi_page_queue_s], ptr %40, i64 0, i64 74
  %42 = getelementptr inbounds nuw %struct.mi_page_queue_s, ptr %41, i32 0, i32 0
  %43 = load ptr, ptr %42, align 8, !tbaa !40
  store ptr %43, ptr %10, align 8, !tbaa !8
  br label %44

44:                                               ; preds = %52, %38
  %45 = load ptr, ptr %10, align 8, !tbaa !8
  %46 = icmp ne ptr %45, null
  br i1 %46, label %47, label %50

47:                                               ; preds = %44
  %48 = load ptr, ptr %10, align 8, !tbaa !8
  %49 = call zeroext i1 @mi_page_is_huge(ptr noundef %48) #8
  br label %50

50:                                               ; preds = %47, %44
  %51 = phi i1 [ false, %44 ], [ %49, %47 ]
  br i1 %51, label %52, label %56

52:                                               ; preds = %50
  %53 = load ptr, ptr %10, align 8, !tbaa !8
  %54 = getelementptr inbounds nuw %struct.mi_page_s, ptr %53, i32 0, i32 15
  %55 = load ptr, ptr %54, align 8, !tbaa !39
  store ptr %55, ptr %10, align 8, !tbaa !8
  br label %44, !llvm.loop !85

56:                                               ; preds = %50
  %57 = load ptr, ptr %10, align 8, !tbaa !8
  %58 = icmp eq ptr %57, null
  br i1 %58, label %59, label %60

59:                                               ; preds = %56
  store i32 2, ptr %9, align 4
  br label %65

60:                                               ; preds = %56
  call void @llvm.lifetime.start.p0(i64 8, ptr %11) #7
  %61 = load ptr, ptr %10, align 8, !tbaa !8
  %62 = call ptr @_mi_page_segment(ptr noundef %61) #8
  store ptr %62, ptr %11, align 8, !tbaa !3
  %63 = load ptr, ptr %11, align 8, !tbaa !3
  %64 = load ptr, ptr %6, align 8, !tbaa !28
  call void @mi_segment_force_abandon(ptr noundef %63, ptr noundef %64) #8
  call void @llvm.lifetime.end.p0(i64 8, ptr %11) #7
  store i32 0, ptr %9, align 4
  br label %65

65:                                               ; preds = %60, %59
  call void @llvm.lifetime.end.p0(i64 8, ptr %10) #7
  %66 = load i32, ptr %9, align 4
  switch i32 %66, label %71 [
    i32 0, label %67
  ]

67:                                               ; preds = %65
  br label %68

68:                                               ; preds = %67
  %69 = load i32, ptr %8, align 4, !tbaa !83
  %70 = add nsw i32 %69, 1
  store i32 %70, ptr %8, align 4, !tbaa !83
  br label %26, !llvm.loop !86

71:                                               ; preds = %65, %37
  call void @llvm.lifetime.end.p0(i64 4, ptr %8) #7
  br label %72

72:                                               ; preds = %71
  call void @llvm.lifetime.end.p0(i64 8, ptr %7) #7
  br label %73

73:                                               ; preds = %72, %14
  ret void
}