; Function Attrs: nounwind uwtable
define internal fastcc void @mi_segments_try_abandon_to_target(ptr noundef readonly captures(none) %0, i64 noundef %1, ptr noundef captures(address_is_null) %2) unnamed_addr #2 {
  %4 = icmp ult i64 %1, 2
  br i1 %4, label %.critedge, label %5

5:                                                ; preds = %3
  %6 = icmp ugt i64 %1, 4
  %7 = mul i64 %1, 3
  %8 = lshr i64 %7, 2
  %9 = select i1 %6, i64 %8, i64 %1
  %10 = getelementptr inbounds nuw i8, ptr %2, i64 56
  %11 = getelementptr inbounds nuw i8, ptr %0, i64 3040
  br label %12

12:                                               ; preds = %5, %mi_segment_force_abandon.exit
  %.032 = phi i32 [ 0, %5 ], [ %52, %mi_segment_force_abandon.exit ]
  %13 = load i64, ptr %10, align 8, !tbaa !58
  %.not = icmp ult i64 %13, %9
  br i1 %.not, label %.critedge, label %14

14:                                               ; preds = %12
  %.01828 = load ptr, ptr %11, align 8, !tbaa !87
  %cond29 = icmp eq ptr %.01828, null
  br i1 %cond29, label %.critedge, label %.lr.ph

.lr.ph:                                           ; preds = %14, %17
  %.01830 = phi ptr [ %.018, %17 ], [ %.01828, %14 ]
  %15 = getelementptr i8, ptr %.01830, i64 1
  %.018.val = load i8, ptr %15, align 1
  %16 = and i8 %.018.val, 8
  %.not24 = icmp eq i8 %16, 0
  br i1 %.not24, label %.critedge2, label %17

17:                                               ; preds = %.lr.ph
  %18 = getelementptr inbounds nuw i8, ptr %.01830, i64 64
  %.018 = load ptr, ptr %18, align 8, !tbaa !87
  %cond = icmp eq ptr %.018, null
  br i1 %cond, label %.critedge, label %.lr.ph, !llvm.loop !88

.critedge2:                                       ; preds = %.lr.ph
  %magicptr.le = ptrtoint ptr %.01830 to i64
  %19 = add i64 %magicptr.le, -1
  %20 = and i64 %19, -4194304
  %21 = inttoptr i64 %20 to ptr
  %22 = icmp slt i64 %19, 4194304
  %23 = select i1 %22, ptr null, ptr %21
  %24 = getelementptr inbounds nuw i8, ptr %23, i64 65
  store i8 1, ptr %24, align 1, !tbaa !54
  %25 = getelementptr inbounds nuw i8, ptr %23, i64 96
  %26 = load i64, ptr %25, align 32, !tbaa !43
  %.not23.i = icmp eq i64 %26, 0
  br i1 %.not23.i, label %._crit_edge.i, label %.lr.ph.i

.lr.ph.i:                                         ; preds = %.critedge2
  %27 = getelementptr inbounds nuw i8, ptr %23, i64 160
  %28 = getelementptr inbounds nuw i8, ptr %23, i64 88
  %29 = getelementptr inbounds nuw i8, ptr %23, i64 72
  br label %30

30:                                               ; preds = %42, %.lr.ph.i
  %31 = phi i64 [ %26, %.lr.ph.i ], [ %43, %42 ]
  %.022.i = phi i64 [ 0, %.lr.ph.i ], [ %44, %42 ]
  %32 = getelementptr inbounds nuw [1 x %struct.mi_page_s], ptr %27, i64 0, i64 %.022.i
  %33 = getelementptr inbounds nuw i8, ptr %32, i64 1
  %34 = load i8, ptr %33, align 1
  %35 = and i8 %34, 1
  %.not.i = icmp eq i8 %35, 0
  br i1 %.not.i, label %42, label %36

36:                                               ; preds = %30
  %37 = load i64, ptr %28, align 8, !tbaa !41
  %38 = load i64, ptr %29, align 8, !tbaa !42
  %39 = add i64 %38, 1
  %40 = icmp eq i64 %37, %39
  br i1 %40, label %46, label %41

41:                                               ; preds = %36
  tail call void @_mi_page_force_abandon(ptr noundef nonnull %32) #8
  %.pre.i = load i64, ptr %25, align 32, !tbaa !43
  br label %42

42:                                               ; preds = %41, %30
  %43 = phi i64 [ %.pre.i, %41 ], [ %31, %30 ]
  %44 = add nuw i64 %.022.i, 1
  %45 = icmp ult i64 %44, %43
  br i1 %45, label %30, label %._crit_edge.i, !llvm.loop !89

46:                                               ; preds = %36
  store i8 0, ptr %24, align 1, !tbaa !54
  tail call void @_mi_page_force_abandon(ptr noundef nonnull %32) #8
  br label %mi_segment_force_abandon.exit

._crit_edge.i:                                    ; preds = %42, %.critedge2
  store i8 0, ptr %24, align 1, !tbaa !54
  %47 = getelementptr inbounds nuw i8, ptr %23, i64 88
  %48 = load i64, ptr %47, align 8, !tbaa !41
  %49 = icmp eq i64 %48, 0
  br i1 %49, label %50, label %51

50:                                               ; preds = %._crit_edge.i
  tail call fastcc void @mi_segment_free(ptr noundef nonnull %23, ptr noundef %2) #7
  br label %mi_segment_force_abandon.exit

51:                                               ; preds = %._crit_edge.i
  tail call fastcc void @mi_pages_try_purge(i1 noundef zeroext false, ptr noundef %2) #7
  br label %mi_segment_force_abandon.exit

mi_segment_force_abandon.exit:                    ; preds = %46, %50, %51
  %52 = add nuw nsw i32 %.032, 1
  %exitcond.not = icmp eq i32 %52, 64
  br i1 %exitcond.not, label %.critedge, label %12, !llvm.loop !90

.critedge:                                        ; preds = %mi_segment_force_abandon.exit, %12, %14, %17, %3
  ret void
}